target datalayout = "e-m:e-p270:32:32-p271:32:32-p272:64:64-i64:64-i128:128-f80:128-n8:16:32:64-S128"
target triple = "x86_64-pc-linux-gnu"

%"struct.pxrInternal_v0_24__pxrReserved__::SdfChangeList::Entry" = type <{ %"class.pxrInternal_v0_24__pxrReserved__::TfSmallVector.5", %"class.std::vector", %"class.pxrInternal_v0_24__pxrReserved__::SdfPath", %"class.std::__cxx11::basic_string", %"struct.pxrInternal_v0_24__pxrReserved__::SdfChangeList::Entry::_Flags", [5 x i8] }>
%"class.pxrInternal_v0_24__pxrReserved__::TfSmallVector.5" = type { %"union.pxrInternal_v0_24__pxrReserved__::TfSmallVectorBase::_DataUnion.6", i32, i32 }
%"union.pxrInternal_v0_24__pxrReserved__::TfSmallVectorBase::_DataUnion.6" = type { ptr, [112 x i8] }
%"class.std::vector" = type { %"struct.std::_Vector_base" }
%"struct.std::_Vector_base" = type { %"struct.std::_Vector_base<std::pair<std::__cxx11::basic_string<char>, pxrInternal_v0_24__pxrReserved__::SdfChangeList::SubLayerChangeType>, std::allocator<std::pair<std::__cxx11::basic_string<char>, pxrInternal_v0_24__pxrReserved__::SdfChangeList::SubLayerChangeType>>>::_Vector_impl" }
%"struct.std::_Vector_base<std::pair<std::__cxx11::basic_string<char>, pxrInternal_v0_24__pxrReserved__::SdfChangeList::SubLayerChangeType>, std::allocator<std::pair<std::__cxx11::basic_string<char>, pxrInternal_v0_24__pxrReserved__::SdfChangeList::SubLayerChangeType>>>::_Vector_impl" = type { %"struct.std::_Vector_base<std::pair<std::__cxx11::basic_string<char>, pxrInternal_v0_24__pxrReserved__::SdfChangeList::SubLayerChangeType>, std::allocator<std::pair<std::__cxx11::basic_string<char>, pxrInternal_v0_24__pxrReserved__::SdfChangeList::SubLayerChangeType>>>::_Vector_impl_data" }
%"struct.std::_Vector_base<std::pair<std::__cxx11::basic_string<char>, pxrInternal_v0_24__pxrReserved__::SdfChangeList::SubLayerChangeType>, std::allocator<std::pair<std::__cxx11::basic_string<char>, pxrInternal_v0_24__pxrReserved__::SdfChangeList::SubLayerChangeType>>>::_Vector_impl_data" = type { ptr, ptr, ptr }
%"class.pxrInternal_v0_24__pxrReserved__::SdfPath" = type { %"struct.pxrInternal_v0_24__pxrReserved__::Sdf_PathNodeHandleImpl", %"struct.pxrInternal_v0_24__pxrReserved__::Sdf_PathNodeHandleImpl.4" }
%"struct.pxrInternal_v0_24__pxrReserved__::Sdf_PathNodeHandleImpl" = type { %"struct.pxrInternal_v0_24__pxrReserved__::Sdf_Pool<pxrInternal_v0_24__pxrReserved__::Sdf_PathPrimTag, 24, 8>::Handle" }
%"struct.pxrInternal_v0_24__pxrReserved__::Sdf_Pool<pxrInternal_v0_24__pxrReserved__::Sdf_PathPrimTag, 24, 8>::Handle" = type { i32 }
%"struct.pxrInternal_v0_24__pxrReserved__::Sdf_PathNodeHandleImpl.4" = type { %"struct.pxrInternal_v0_24__pxrReserved__::Sdf_Pool<pxrInternal_v0_24__pxrReserved__::Sdf_PathPropTag, 24, 8>::Handle" }
%"struct.pxrInternal_v0_24__pxrReserved__::Sdf_Pool<pxrInternal_v0_24__pxrReserved__::Sdf_PathPropTag, 24, 8>::Handle" = type { i32 }
%"class.std::__cxx11::basic_string" = type { %"struct.std::__cxx11::basic_string<char>::_Alloc_hider", i64, %union.anon }
%"struct.std::__cxx11::basic_string<char>::_Alloc_hider" = type { ptr }
%union.anon = type { i64, [8 x i8] }
%"struct.pxrInternal_v0_24__pxrReserved__::SdfChangeList::Entry::_Flags" = type <{ i16, i8 }>
%"class.pxrInternal_v0_24__pxrReserved__::SdfChangeList" = type { %"class.pxrInternal_v0_24__pxrReserved__::TfSmallVector", %"class.std::unique_ptr" }
%"class.pxrInternal_v0_24__pxrReserved__::TfSmallVector" = type { %"union.pxrInternal_v0_24__pxrReserved__::TfSmallVectorBase::_DataUnion", i32, i32 }
%"union.pxrInternal_v0_24__pxrReserved__::TfSmallVectorBase::_DataUnion" = type { ptr, [200 x i8] }
%"class.std::unique_ptr" = type { %"struct.std::__uniq_ptr_data" }
%"struct.std::__uniq_ptr_data" = type { %"class.std::__uniq_ptr_impl" }
%"class.std::__uniq_ptr_impl" = type { %"class.std::tuple" }
%"class.std::tuple" = type { %"struct.std::_Tuple_impl" }
%"struct.std::_Tuple_impl" = type { %"struct.std::_Head_base.1" }
%"struct.std::_Head_base.1" = type { ptr }
%"struct.std::pair" = type { %"class.pxrInternal_v0_24__pxrReserved__::SdfPath", %"struct.pxrInternal_v0_24__pxrReserved__::SdfChangeList::Entry" }

; Function Attrs: mustprogress nounwind uwtable
define linkonce_odr noundef ptr @_ZN32pxrInternal_v0_24__pxrReserved__17TfSmallVectorBase10_DataUnionILm208ELm8ELm1EE16GetRemoteStorageEv(ptr noundef nonnull align 8 dereferenceable(208) %0) #1 comdat align 2 {
  %2 = alloca ptr, align 8
  store ptr %0, ptr %2, align 8
  %3 = load ptr, ptr %2, align 8
  %4 = load ptr, ptr %3, align 8
  ret ptr %4
}

; Function Attrs: mustprogress nounwind uwtable
define linkonce_odr noundef ptr @_ZN32pxrInternal_v0_24__pxrReserved__17TfSmallVectorBase10_DataUnionILm208ELm8ELm1EE15GetLocalStorageEv(ptr noundef nonnull align 8 dereferenceable(208) %0) #1 comdat align 2 {
  %2 = alloca ptr, align 8
  store ptr %0, ptr %2, align 8
  %3 = load ptr, ptr %2, align 8
  %4 = getelementptr inbounds [208 x i8], ptr %3, i64 0, i64 0
  ret ptr %4
}

; Function Attrs: mustprogress uwtable
define linkonce_odr noundef ptr @_ZN32pxrInternal_v0_24__pxrReserved__13TfSmallVectorISt4pairINS_7SdfPathENS_13SdfChangeList5EntryEELj1EE17_GetRemoteStorageEv(ptr noundef nonnull align 8 dereferenceable(216) %0) #0 comdat align 2 {
  %2 = alloca ptr, align 8
  store ptr %0, ptr %2, align 8
  %3 = load ptr, ptr %2, align 8
  %4 = getelementptr inbounds nuw %"class.pxrInternal_v0_24__pxrReserved__::TfSmallVector", ptr %3, i32 0, i32 0
  %5 = call noundef ptr @_ZN32pxrInternal_v0_24__pxrReserved__17TfSmallVectorBase10_DataUnionILm208ELm8ELm1EE16GetRemoteStorageEv(ptr noundef nonnull align 8 dereferenceable(208) %4)
  ret ptr %5
}

; Function Attrs: mustprogress uwtable
define linkonce_odr noundef ptr @_ZN32pxrInternal_v0_24__pxrReserved__13TfSmallVectorISt4pairINS_7SdfPathENS_13SdfChangeList5EntryEELj1EE16_GetLocalStorageEv(ptr noundef nonnull align 8 dereferenceable(216) %0) #0 comdat align 2 {
  %2 = alloca ptr, align 8
  store ptr %0, ptr %2, align 8
  %3 = load ptr, ptr %2, align 8
  %4 = getelementptr inbounds nuw %"class.pxrInternal_v0_24__pxrReserved__::TfSmallVector", ptr %3, i32 0, i32 0
  %5 = call noundef ptr @_ZN32pxrInternal_v0_24__pxrReserved__17TfSmallVectorBase10_DataUnionILm208ELm8ELm1EE15GetLocalStorageEv(ptr noundef nonnull align 8 dereferenceable(208) %4)
  ret ptr %5
}

; Function Attrs: mustprogress nounwind uwtable
define linkonce_odr noundef zeroext i1 @_ZNK32pxrInternal_v0_24__pxrReserved__13TfSmallVectorISt4pairINS_7SdfPathENS_13SdfChangeList5EntryEELj1EE8_IsLocalEv(ptr noundef nonnull align 8 dereferenceable(216) %0) #1 comdat align 2 {
  %2 = alloca ptr, align 8
  store ptr %0, ptr %2, align 8
  %3 = load ptr, ptr %2, align 8
  %4 = getelementptr inbounds nuw %"class.pxrInternal_v0_24__pxrReserved__::TfSmallVector", ptr %3, i32 0, i32 2
  %5 = load i32, ptr %4, align 4
  %6 = icmp ule i32 %5, 1
  ret i1 %6
}

; Function Attrs: mustprogress uwtable
define linkonce_odr noundef ptr @_ZN32pxrInternal_v0_24__pxrReserved__13TfSmallVectorISt4pairINS_7SdfPathENS_13SdfChangeList5EntryEELj1EE11_GetStorageEv(ptr noundef nonnull align 8 dereferenceable(216) %0) #0 comdat align 2 {
  %2 = alloca ptr, align 8
  store ptr %0, ptr %2, align 8
  %3 = load ptr, ptr %2, align 8
  %4 = call noundef zeroext i1 @_ZNK32pxrInternal_v0_24__pxrReserved__13TfSmallVectorISt4pairINS_7SdfPathENS_13SdfChangeList5EntryEELj1EE8_IsLocalEv(ptr noundef nonnull align 8 dereferenceable(216) %3)
  br i1 %4, label %5, label %7

5:                                                ; preds = %1
  %6 = call noundef ptr @_ZN32pxrInternal_v0_24__pxrReserved__13TfSmallVectorISt4pairINS_7SdfPathENS_13SdfChangeList5EntryEELj1EE16_GetLocalStorageEv(ptr noundef nonnull align 8 dereferenceable(216) %3)
  br label %9

7:                                                ; preds = %1
  %8 = call noundef ptr @_ZN32pxrInternal_v0_24__pxrReserved__13TfSmallVectorISt4pairINS_7SdfPathENS_13SdfChangeList5EntryEELj1EE17_GetRemoteStorageEv(ptr noundef nonnull align 8 dereferenceable(216) %3)
  br label %9

9:                                                ; preds = %7, %5
  %10 = phi ptr [ %6, %5 ], [ %8, %7 ]
  ret ptr %10
}

; Function Attrs: mustprogress nounwind uwtable
define linkonce_odr noundef i64 @_ZNK32pxrInternal_v0_24__pxrReserved__13TfSmallVectorISt4pairINS_7SdfPathENS_13SdfChangeList5EntryEELj1EE4sizeEv(ptr noundef nonnull align 8 dereferenceable(216) %0) #1 comdat align 2 {
  %2 = alloca ptr, align 8
  store ptr %0, ptr %2, align 8
  %3 = load ptr, ptr %2, align 8
  %4 = getelementptr inbounds nuw %"class.pxrInternal_v0_24__pxrReserved__::TfSmallVector", ptr %3, i32 0, i32 1
  %5 = load i32, ptr %4, align 8
  %6 = zext i32 %5 to i64
  ret i64 %6
}

; Function Attrs: mustprogress uwtable
define linkonce_odr noundef ptr @_ZN32pxrInternal_v0_24__pxrReserved__13TfSmallVectorISt4pairINS_7SdfPathENS_13SdfChangeList5EntryEELj1EE5eraseEPKS5_(ptr noundef nonnull align 8 dereferenceable(216) %0, ptr noundef %1) #0 comdat align 2 {
  %3 = alloca ptr, align 8
  %4 = alloca ptr, align 8
  store ptr %0, ptr %3, align 8
  store ptr %1, ptr %4, align 8
  %5 = load ptr, ptr %3, align 8
  %6 = load ptr, ptr %4, align 8
  %7 = load ptr, ptr %4, align 8
  %8 = getelementptr inbounds %"struct.std::pair", ptr %7, i64 1
  %9 = call noundef ptr @_ZN32pxrInternal_v0_24__pxrReserved__13TfSmallVectorISt4pairINS_7SdfPathENS_13SdfChangeList5EntryEELj1EE5eraseEPKS5_S8_(ptr noundef nonnull align 8 dereferenceable(216) %5, ptr noundef %6, ptr noundef %8)
  ret ptr %9
}

; Function Attrs: mustprogress uwtable
define linkonce_odr noundef ptr @_ZN32pxrInternal_v0_24__pxrReserved__13TfSmallVectorISt4pairINS_7SdfPathENS_13SdfChangeList5EntryEELj1EE3endEv(ptr noundef nonnull align 8 dereferenceable(216) %0) #0 comdat align 2 {
  %2 = alloca ptr, align 8
  store ptr %0, ptr %2, align 8
  %3 = load ptr, ptr %2, align 8
  %4 = call noundef ptr @_ZN32pxrInternal_v0_24__pxrReserved__13TfSmallVectorISt4pairINS_7SdfPathENS_13SdfChangeList5EntryEELj1EE11_GetStorageEv(ptr noundef nonnull align 8 dereferenceable(216) %3)
  %5 = call noundef i64 @_ZNK32pxrInternal_v0_24__pxrReserved__13TfSmallVectorISt4pairINS_7SdfPathENS_13SdfChangeList5EntryEELj1EE4sizeEv(ptr noundef nonnull align 8 dereferenceable(216) %3)
  %6 = getelementptr inbounds %"struct.std::pair", ptr %4, i64 %5
  ret ptr %6
}

; Function Attrs: mustprogress uwtable
define noundef ptr @_ZN32pxrInternal_v0_24__pxrReserved__13SdfChangeList21_MakeNonConstIteratorEPKSt4pairINS_7SdfPathENS0_5EntryEE(ptr noundef nonnull align 8 dereferenceable(224) %0, ptr noundef %1) #0 align 2 {
  %3 = alloca ptr, align 8
  %4 = alloca ptr, align 8
  store ptr %0, ptr %3, align 8
  store ptr %1, ptr %4, align 8
  %5 = load ptr, ptr %3, align 8
  %6 = getelementptr inbounds nuw %"class.pxrInternal_v0_24__pxrReserved__::SdfChangeList", ptr %5, i32 0, i32 0
  %7 = load ptr, ptr %4, align 8
  %8 = load ptr, ptr %4, align 8
  %9 = call noundef ptr @_ZN32pxrInternal_v0_24__pxrReserved__13TfSmallVectorISt4pairINS_7SdfPathENS_13SdfChangeList5EntryEELj1EE5eraseEPKS5_S8_(ptr noundef nonnull align 8 dereferenceable(216) %6, ptr noundef %7, ptr noundef %8)
  ret ptr %9
}

; Function Attrs: mustprogress uwtable
define linkonce_odr noundef zeroext i1 @_ZNK32pxrInternal_v0_24__pxrReserved__13TfSmallVectorISt4pairINS_7SdfPathENS_13SdfChangeList5EntryEELj1EE5emptyEv(ptr noundef nonnull align 8 dereferenceable(216) %0) #0 comdat align 2 {
  %2 = alloca ptr, align 8
  store ptr %0, ptr %2, align 8
  %3 = load ptr, ptr %2, align 8
  %4 = call noundef i64 @_ZNK32pxrInternal_v0_24__pxrReserved__13TfSmallVectorISt4pairINS_7SdfPathENS_13SdfChangeList5EntryEELj1EE4sizeEv(ptr noundef nonnull align 8 dereferenceable(216) %3)
  %5 = icmp eq i64 %4, 0
  ret i1 %5
}

; Function Attrs: mustprogress uwtable
define void @_ZN32pxrInternal_v0_24__pxrReserved__13SdfChangeList11_EraseEntryERKNS_7SdfPathE(ptr noundef nonnull align 8 dereferenceable(224) %0, ptr noundef nonnull align 4 dereferenceable(8) %1) #0 align 2 {
  %3 = alloca ptr, align 8
  %4 = alloca ptr, align 8
  %5 = alloca ptr, align 8
  store ptr %0, ptr %3, align 8
  store ptr %1, ptr %4, align 8
  %6 = load ptr, ptr %3, align 8
  %7 = getelementptr inbounds nuw %"class.pxrInternal_v0_24__pxrReserved__::SdfChangeList", ptr %6, i32 0, i32 0
  %8 = call noundef zeroext i1 @_ZNK32pxrInternal_v0_24__pxrReserved__13TfSmallVectorISt4pairINS_7SdfPathENS_13SdfChangeList5EntryEELj1EE5emptyEv(ptr noundef nonnull align 8 dereferenceable(216) %7)
  br i1 %8, label %9, label %10

9:                                                ; preds = %2
  br label %22

10:                                               ; preds = %2
  %11 = load ptr, ptr %4, align 8
  %12 = call noundef ptr @_ZNK32pxrInternal_v0_24__pxrReserved__13SdfChangeList9FindEntryERKNS_7SdfPathE(ptr noundef nonnull align 8 dereferenceable(224) %6, ptr noundef nonnull align 4 dereferenceable(8) %11)
  %13 = call noundef ptr @_ZN32pxrInternal_v0_24__pxrReserved__13SdfChangeList21_MakeNonConstIteratorEPKSt4pairINS_7SdfPathENS0_5EntryEE(ptr noundef nonnull align 8 dereferenceable(224) %6, ptr noundef %12)
  store ptr %13, ptr %5, align 8
  %14 = load ptr, ptr %5, align 8
  %15 = getelementptr inbounds nuw %"class.pxrInternal_v0_24__pxrReserved__::SdfChangeList", ptr %6, i32 0, i32 0
  %16 = call noundef ptr @_ZN32pxrInternal_v0_24__pxrReserved__13TfSmallVectorISt4pairINS_7SdfPathENS_13SdfChangeList5EntryEELj1EE3endEv(ptr noundef nonnull align 8 dereferenceable(216) %15)
  %17 = icmp ne ptr %14, %16
  br i1 %17, label %18, label %22

18:                                               ; preds = %10
  %19 = getelementptr inbounds nuw %"class.pxrInternal_v0_24__pxrReserved__::SdfChangeList", ptr %6, i32 0, i32 0
  %20 = load ptr, ptr %5, align 8
  %21 = call noundef ptr @_ZN32pxrInternal_v0_24__pxrReserved__13TfSmallVectorISt4pairINS_7SdfPathENS_13SdfChangeList5EntryEELj1EE5eraseEPKS5_(ptr noundef nonnull align 8 dereferenceable(216) %19, ptr noundef %20)
  call void @_ZN32pxrInternal_v0_24__pxrReserved__13SdfChangeList13_RebuildAccelEv(ptr noundef nonnull align 8 dereferenceable(224) %6)
  br label %22

22:                                               ; preds = %18, %10, %9
  ret void
}