; Function Attrs: mustprogress uwtable
define void @_ZN32pxrInternal_v0_24__pxrReserved__13SdfChangeList11_EraseEntryERKNS_7SdfPathE(ptr noundef nonnull align 8 dereferenceable(224) %0, ptr nocapture noundef nonnull readonly align 4 dereferenceable(8) %1) local_unnamed_addr #0 align 2 personality ptr @__gxx_personality_v0 {
  %3 = getelementptr inbounds nuw i8, ptr %0, i64 208
  %4 = load i32, ptr %3, align 8
  %5 = icmp eq i32 %4, 0
  br i1 %5, label %17, label %6

6:                                                ; preds = %2
  %7 = tail call noundef ptr @_ZNK32pxrInternal_v0_24__pxrReserved__13SdfChangeList9FindEntryERKNS_7SdfPathE(ptr noundef nonnull align 8 dereferenceable(224) %0, ptr noundef nonnull align 4 dereferenceable(8) %1)
  %8 = getelementptr inbounds nuw i8, ptr %0, i64 212
  %9 = load i32, ptr %8, align 4
  %10 = icmp ult i32 %9, 2
  %11 = load ptr, ptr %0, align 8
  %spec.select.i.i = select i1 %10, ptr %0, ptr %11
  %12 = zext i32 %4 to i64
  %13 = getelementptr inbounds %"struct.std::pair", ptr %spec.select.i.i, i64 %12
  %.not = icmp eq ptr %7, %13
  br i1 %.not, label %17, label %14

14:                                               ; preds = %6
  %15 = getelementptr inbounds i8, ptr %7, i64 208
  %16 = tail call noundef ptr @_ZN32pxrInternal_v0_24__pxrReserved__13TfSmallVectorISt4pairINS_7SdfPathENS_13SdfChangeList5EntryEELj1EE5eraseEPKS5_S8_(ptr noundef nonnull align 8 dereferenceable(216) %0, ptr noundef %7, ptr noundef nonnull %15)
  tail call void @_ZN32pxrInternal_v0_24__pxrReserved__13SdfChangeList13_RebuildAccelEv(ptr noundef nonnull align 8 dereferenceable(224) %0)
  br label %17

17:                                               ; preds = %2, %14, %6
  ret void
}